#include <math.h>
#include <stdio.h>
#include <stdlib.h>
#include <string.h>

int main()
{

int n,i,j,k;
scanf("%d",&n);
int ys[300];
int sc[300];
for(i=0;i<n;i++)
{
	scanf("%d",&ys[i]);
}//????
for(i=0;i<n;i++)
{
	for(j=1+i;j<n;j++)
	{
		if(ys[i]==ys[j])
		{
		ys[j]=0;
		}
	}
}
//??????0
k=0;
for(i=0;i<n;i++)
{
	if(ys[i]!=0)
	{
		sc[k]=ys[i];
		k++;
	}
	
}
for(i=0;i<k;i++)
{
if(i!=0)
	{
		printf(",");
	}
	printf("%d",sc[i]);
}



return 0;
}